; Function Attrs: nounwind uwtable
define ptr @l_Lean_Meta_IndPredBelow_getBelowIndices_loop___lambda__1(ptr noundef %0, ptr noundef %1, ptr noundef %2, ptr noundef %3, ptr noundef readnone captures(none) %4, ptr noundef %5, ptr noundef %6, ptr noundef %7, ptr noundef %8, ptr noundef %9, ptr noundef %10) local_unnamed_addr #0 {
  %12 = ptrtoint ptr %0 to i64
  %13 = and i64 %12, 1
  %.not = icmp eq i64 %13, 0
  br i1 %.not, label %.critedge.i, label %14, !prof !10

14:                                               ; preds = %11
  %15 = lshr i64 %12, 1
  %16 = add nuw i64 %15, 1
  %17 = icmp sgt i64 %16, -1
  br i1 %17, label %18, label %22, !prof !11

18:                                               ; preds = %14
  %19 = shl nuw i64 %16, 1
  %20 = or disjoint i64 %19, 1
  %21 = inttoptr i64 %20 to ptr
  br label %lean_nat_add.exit

22:                                               ; preds = %14
  %23 = tail call ptr @lean_big_usize_to_nat(i64 noundef range(i64 0, -1) %16) #6
  br label %lean_nat_add.exit

.critedge.i:                                      ; preds = %11
  %24 = tail call ptr @lean_nat_big_add(ptr noundef %0, ptr noundef nonnull inttoptr (i64 3 to ptr)) #6
  br label %lean_nat_add.exit

lean_nat_add.exit:                                ; preds = %22, %18, %.critedge.i
  %.0.i = phi ptr [ %24, %.critedge.i ], [ %21, %18 ], [ %23, %22 ]
  %25 = tail call ptr @l_Lean_Meta_IndPredBelow_getBelowIndices_loop(ptr noundef %1, ptr noundef %5, ptr noundef %2, ptr noundef %3, ptr noundef %.0.i, ptr noundef %6, ptr noundef %7, ptr noundef %8, ptr noundef %9, ptr noundef %10)
  ret ptr %25
}